; Function Attrs: nounwind uwtable
define nonnull ptr @l_Int_Linear_Poly_isUnsatEq___boxed(ptr noundef %0) local_unnamed_addr #1 {
  %2 = ptrtoint ptr %0 to i64
  %3 = and i64 %2, 1
  %.not.i.i = icmp eq i64 %3, 0
  br i1 %.not.i.i, label %7, label %4

4:                                                ; preds = %1
  %5 = lshr i64 %2, 1
  %6 = trunc i64 %5 to i32
  br label %lean_obj_tag.exit.i

7:                                                ; preds = %1
  %8 = getelementptr i8, ptr %0, i64 4
  %.val.i.i = load i32, ptr %8, align 4
  %9 = lshr i32 %.val.i.i, 24
  br label %lean_obj_tag.exit.i

lean_obj_tag.exit.i:                              ; preds = %7, %4
  %.0.i.i = phi i32 [ %6, %4 ], [ %9, %7 ]
  %10 = icmp eq i32 %.0.i.i, 0
  br i1 %10, label %11, label %l_Int_Linear_Poly_isUnsatEq.exit

11:                                               ; preds = %lean_obj_tag.exit.i
  %12 = getelementptr inbounds nuw i8, ptr %0, i64 8
  %13 = load ptr, ptr %12, align 8, !tbaa !11
  %14 = load ptr, ptr @l_Int_Linear_instInhabitedExpr___closed__1, align 8, !tbaa !11
  %15 = ptrtoint ptr %13 to i64
  %16 = ptrtoint ptr %14 to i64
  %17 = and i64 %15, 1
  %18 = and i64 %17, %16
  %or.cond.not.i.i.i = icmp eq i64 %18, 0
  br i1 %or.cond.not.i.i.i, label %.critedge.i.i.i, label %19, !prof !13

19:                                               ; preds = %11
  %20 = icmp eq ptr %13, %14
  br label %lean_int_dec_eq.exit.i

.critedge.i.i.i:                                  ; preds = %11
  %21 = tail call zeroext i1 @lean_int_big_eq(ptr noundef %13, ptr noundef %14) #5
  br label %lean_int_dec_eq.exit.i

lean_int_dec_eq.exit.i:                           ; preds = %.critedge.i.i.i, %19
  %.0.i.i.i = phi i1 [ %20, %19 ], [ %21, %.critedge.i.i.i ]
  %22 = select i1 %.0.i.i.i, i64 1, i64 3
  br label %l_Int_Linear_Poly_isUnsatEq.exit

l_Int_Linear_Poly_isUnsatEq.exit:                 ; preds = %lean_obj_tag.exit.i, %lean_int_dec_eq.exit.i
  %.1.i = phi i64 [ %22, %lean_int_dec_eq.exit.i ], [ 1, %lean_obj_tag.exit.i ]
  br i1 %.not.i.i, label %23, label %lean_dec.exit

23:                                               ; preds = %l_Int_Linear_Poly_isUnsatEq.exit
  %24 = load i32, ptr %0, align 4, !tbaa !6
  %25 = icmp sgt i32 %24, 1
  br i1 %25, label %26, label %28, !prof !5

26:                                               ; preds = %23
  %27 = add nsw i32 %24, -1
  store i32 %27, ptr %0, align 4, !tbaa !6
  br label %lean_dec.exit

28:                                               ; preds = %23
  %.not.i = icmp eq i32 %24, 0
  br i1 %.not.i, label %lean_dec.exit, label %29

29:                                               ; preds = %28
  tail call void @lean_dec_ref_cold(ptr noundef nonnull %0) #5
  br label %lean_dec.exit

lean_dec.exit:                                    ; preds = %29, %28, %26, %l_Int_Linear_Poly_isUnsatEq.exit
  %30 = inttoptr i64 %.1.i to ptr
  ret ptr %30
}